target datalayout = "e-m:e-p270:32:32-p271:32:32-p272:64:64-i64:64-i128:128-f80:128-n8:16:32:64-S128"
target triple = "x86_64-pc-linux-gnu"

%struct.sp_int = type { i16, i16, [129 x i64] }

; Function Attrs: nounwind uwtable
define internal void @_sp_div_2(ptr noundef %0, ptr noundef %1) #0 {
  %3 = alloca ptr, align 8
  %4 = alloca ptr, align 8
  %5 = alloca i32, align 4
  %6 = alloca i32, align 4
  store ptr %0, ptr %3, align 8, !tbaa !3
  store ptr %1, ptr %4, align 8, !tbaa !3
  call void @llvm.lifetime.start.p0(i64 4, ptr %5) #8
  store i32 0, ptr %5, align 4, !tbaa !8
  br label %7

7:                                                ; preds = %37, %2
  %8 = load i32, ptr %5, align 4, !tbaa !8
  %9 = load ptr, ptr %3, align 8, !tbaa !3
  %10 = getelementptr inbounds nuw %struct.sp_int, ptr %9, i32 0, i32 0
  %11 = load i16, ptr %10, align 8, !tbaa !15
  %12 = zext i16 %11 to i32
  %13 = sub nsw i32 %12, 1
  %14 = icmp slt i32 %8, %13
  br i1 %14, label %15, label %40

15:                                               ; preds = %7
  %16 = load ptr, ptr %3, align 8, !tbaa !3
  %17 = getelementptr inbounds nuw %struct.sp_int, ptr %16, i32 0, i32 2
  %18 = load i32, ptr %5, align 4, !tbaa !8
  %19 = sext i32 %18 to i64
  %20 = getelementptr inbounds [129 x i64], ptr %17, i64 0, i64 %19
  %21 = load i64, ptr %20, align 8, !tbaa !16
  %22 = lshr i64 %21, 1
  %23 = load ptr, ptr %3, align 8, !tbaa !3
  %24 = getelementptr inbounds nuw %struct.sp_int, ptr %23, i32 0, i32 2
  %25 = load i32, ptr %5, align 4, !tbaa !8
  %26 = add nsw i32 %25, 1
  %27 = sext i32 %26 to i64
  %28 = getelementptr inbounds [129 x i64], ptr %24, i64 0, i64 %27
  %29 = load i64, ptr %28, align 8, !tbaa !16
  %30 = shl i64 %29, 63
  %31 = or i64 %22, %30
  %32 = load ptr, ptr %4, align 8, !tbaa !3
  %33 = getelementptr inbounds nuw %struct.sp_int, ptr %32, i32 0, i32 2
  %34 = load i32, ptr %5, align 4, !tbaa !8
  %35 = sext i32 %34 to i64
  %36 = getelementptr inbounds [129 x i64], ptr %33, i64 0, i64 %35
  store i64 %31, ptr %36, align 8, !tbaa !16
  br label %37

37:                                               ; preds = %15
  %38 = load i32, ptr %5, align 4, !tbaa !8
  %39 = add nsw i32 %38, 1
  store i32 %39, ptr %5, align 4, !tbaa !8
  br label %7, !llvm.loop !60

40:                                               ; preds = %7
  %41 = load ptr, ptr %3, align 8, !tbaa !3
  %42 = getelementptr inbounds nuw %struct.sp_int, ptr %41, i32 0, i32 2
  %43 = load i32, ptr %5, align 4, !tbaa !8
  %44 = sext i32 %43 to i64
  %45 = getelementptr inbounds [129 x i64], ptr %42, i64 0, i64 %44
  %46 = load i64, ptr %45, align 8, !tbaa !16
  %47 = lshr i64 %46, 1
  %48 = load ptr, ptr %4, align 8, !tbaa !3
  %49 = getelementptr inbounds nuw %struct.sp_int, ptr %48, i32 0, i32 2
  %50 = load i32, ptr %5, align 4, !tbaa !8
  %51 = sext i32 %50 to i64
  %52 = getelementptr inbounds [129 x i64], ptr %49, i64 0, i64 %51
  store i64 %47, ptr %52, align 8, !tbaa !16
  %53 = load i32, ptr %5, align 4, !tbaa !8
  %54 = add nsw i32 %53, 1
  %55 = trunc i32 %54 to i16
  %56 = load ptr, ptr %4, align 8, !tbaa !3
  %57 = getelementptr inbounds nuw %struct.sp_int, ptr %56, i32 0, i32 0
  store i16 %55, ptr %57, align 8, !tbaa !15
  br label %58

58:                                               ; preds = %40
  call void @llvm.lifetime.start.p0(i64 4, ptr %6) #8
  %59 = load ptr, ptr %4, align 8, !tbaa !3
  %60 = getelementptr inbounds nuw %struct.sp_int, ptr %59, i32 0, i32 0
  %61 = load i16, ptr %60, align 8, !tbaa !15
  %62 = zext i16 %61 to i32
  %63 = icmp sgt i32 %62, 0
  br i1 %63, label %64, label %93

64:                                               ; preds = %58
  %65 = load ptr, ptr %4, align 8, !tbaa !3
  %66 = getelementptr inbounds nuw %struct.sp_int, ptr %65, i32 0, i32 0
  %67 = load i16, ptr %66, align 8, !tbaa !15
  %68 = zext i16 %67 to i32
  %69 = sub nsw i32 %68, 1
  store i32 %69, ptr %6, align 4, !tbaa !8
  br label %70

70:                                               ; preds = %84, %64
  %71 = load i32, ptr %6, align 4, !tbaa !8
  %72 = icmp sge i32 %71, 0
  br i1 %72, label %73, label %81

73:                                               ; preds = %70
  %74 = load ptr, ptr %4, align 8, !tbaa !3
  %75 = getelementptr inbounds nuw %struct.sp_int, ptr %74, i32 0, i32 2
  %76 = load i32, ptr %6, align 4, !tbaa !8
  %77 = sext i32 %76 to i64
  %78 = getelementptr inbounds [129 x i64], ptr %75, i64 0, i64 %77
  %79 = load i64, ptr %78, align 8, !tbaa !16
  %80 = icmp eq i64 %79, 0
  br label %81

81:                                               ; preds = %73, %70
  %82 = phi i1 [ false, %70 ], [ %80, %73 ]
  br i1 %82, label %83, label %87

83:                                               ; preds = %81
  br label %84

84:                                               ; preds = %83
  %85 = load i32, ptr %6, align 4, !tbaa !8
  %86 = add nsw i32 %85, -1
  store i32 %86, ptr %6, align 4, !tbaa !8
  br label %70, !llvm.loop !61

87:                                               ; preds = %81
  %88 = load i32, ptr %6, align 4, !tbaa !8
  %89 = add nsw i32 %88, 1
  %90 = trunc i32 %89 to i16
  %91 = load ptr, ptr %4, align 8, !tbaa !3
  %92 = getelementptr inbounds nuw %struct.sp_int, ptr %91, i32 0, i32 0
  store i16 %90, ptr %92, align 8, !tbaa !15
  br label %93

93:                                               ; preds = %87, %58
  call void @llvm.lifetime.end.p0(i64 4, ptr %6) #8
  br label %94

94:                                               ; preds = %93
  br label %95

95:                                               ; preds = %94
  call void @llvm.lifetime.end.p0(i64 4, ptr %5) #8
  ret void
}

; Function Attrs: nounwind uwtable
define i32 @sp_div_2(ptr noundef %0, ptr noundef %1) #0 {
  %3 = alloca ptr, align 8
  %4 = alloca ptr, align 8
  %5 = alloca i32, align 4
  store ptr %0, ptr %3, align 8, !tbaa !3
  store ptr %1, ptr %4, align 8, !tbaa !3
  call void @llvm.lifetime.start.p0(i64 4, ptr %5) #8
  store i32 0, ptr %5, align 4, !tbaa !8
  %6 = load ptr, ptr %3, align 8, !tbaa !3
  %7 = icmp eq ptr %6, null
  br i1 %7, label %11, label %8

8:                                                ; preds = %2
  %9 = load ptr, ptr %4, align 8, !tbaa !3
  %10 = icmp eq ptr %9, null
  br i1 %10, label %11, label %12

11:                                               ; preds = %8, %2
  store i32 -98, ptr %5, align 4, !tbaa !8
  br label %12

12:                                               ; preds = %11, %8
  %13 = load i32, ptr %5, align 4, !tbaa !8
  %14 = icmp eq i32 %13, 0
  br i1 %14, label %15, label %26

15:                                               ; preds = %12
  %16 = load ptr, ptr %3, align 8, !tbaa !3
  %17 = getelementptr inbounds nuw %struct.sp_int, ptr %16, i32 0, i32 0
  %18 = load i16, ptr %17, align 8, !tbaa !15
  %19 = zext i16 %18 to i32
  %20 = load ptr, ptr %4, align 8, !tbaa !3
  %21 = getelementptr inbounds nuw %struct.sp_int, ptr %20, i32 0, i32 1
  %22 = load i16, ptr %21, align 2, !tbaa !12
  %23 = zext i16 %22 to i32
  %24 = icmp sgt i32 %19, %23
  br i1 %24, label %25, label %26

25:                                               ; preds = %15
  store i32 -98, ptr %5, align 4, !tbaa !8
  br label %26

26:                                               ; preds = %25, %15, %12
  %27 = load i32, ptr %5, align 4, !tbaa !8
  %28 = icmp eq i32 %27, 0
  br i1 %28, label %29, label %32

29:                                               ; preds = %26
  %30 = load ptr, ptr %3, align 8, !tbaa !3
  %31 = load ptr, ptr %4, align 8, !tbaa !3
  call void @_sp_div_2(ptr noundef %30, ptr noundef %31)
  br label %32

32:                                               ; preds = %29, %26
  %33 = load i32, ptr %5, align 4, !tbaa !8
  call void @llvm.lifetime.end.p0(i64 4, ptr %5) #8
  ret i32 %33
}