; Function Attrs: nofree norecurse nosync nounwind memory(argmem: readwrite) uwtable
define range(i32 -98, 1) i32 @sp_div_2(ptr noundef readonly captures(address_is_null) %0, ptr noundef captures(address_is_null) %1) local_unnamed_addr #8 {
  %3 = icmp ne ptr %0, null
  %4 = icmp ne ptr %1, null
  %or.cond.not = and i1 %3, %4
  br i1 %or.cond.not, label %5, label %_sp_div_2.exit

5:                                                ; preds = %2
  %6 = load i16, ptr %0, align 8, !tbaa !12
  %7 = getelementptr inbounds nuw i8, ptr %1, i64 2
  %8 = load i16, ptr %7, align 2, !tbaa !10
  %9 = icmp ugt i16 %6, %8
  br i1 %9, label %_sp_div_2.exit, label %.thread

.thread:                                          ; preds = %5
  %10 = zext i16 %6 to i32
  %11 = add nsw i32 %10, -1
  %12 = icmp ugt i16 %6, 1
  %13 = getelementptr inbounds nuw i8, ptr %0, i64 8
  br i1 %12, label %.lr.ph.i, label %._crit_edge.thread.i

._crit_edge.thread.i:                             ; preds = %.thread
  %14 = load i64, ptr %13, align 8, !tbaa !8
  %15 = lshr i64 %14, 1
  %16 = getelementptr inbounds nuw i8, ptr %1, i64 8
  store i64 %15, ptr %16, align 8, !tbaa !8
  br label %31

.lr.ph.i:                                         ; preds = %.thread
  %17 = getelementptr inbounds nuw i8, ptr %1, i64 8
  %wide.trip.count.i = zext i32 %11 to i64
  br label %18

18:                                               ; preds = %18, %.lr.ph.i
  %indvars.iv.i = phi i64 [ 0, %.lr.ph.i ], [ %indvars.iv.next.i, %18 ]
  %19 = getelementptr inbounds nuw [129 x i64], ptr %13, i64 0, i64 %indvars.iv.i
  %20 = load i64, ptr %19, align 8, !tbaa !8
  %indvars.iv.next.i = add nuw nsw i64 %indvars.iv.i, 1
  %21 = getelementptr inbounds nuw [129 x i64], ptr %13, i64 0, i64 %indvars.iv.next.i
  %22 = load i64, ptr %21, align 8, !tbaa !8
  %23 = tail call i64 @llvm.fshl.i64(i64 %22, i64 %20, i64 63)
  %24 = getelementptr inbounds nuw [129 x i64], ptr %17, i64 0, i64 %indvars.iv.i
  store i64 %23, ptr %24, align 8, !tbaa !8
  %exitcond.not.i = icmp eq i64 %indvars.iv.next.i, %wide.trip.count.i
  br i1 %exitcond.not.i, label %._crit_edge.i, label %18, !llvm.loop !41

._crit_edge.i:                                    ; preds = %18
  %25 = getelementptr inbounds nuw [129 x i64], ptr %13, i64 0, i64 %wide.trip.count.i
  %26 = load i64, ptr %25, align 8, !tbaa !8
  %27 = lshr i64 %26, 1
  %28 = getelementptr inbounds nuw [129 x i64], ptr %17, i64 0, i64 %wide.trip.count.i
  store i64 %27, ptr %28, align 8, !tbaa !8
  %29 = trunc i32 %11 to i16
  %30 = add i16 %29, 1
  store i16 %30, ptr %1, align 8, !tbaa !12
  %.not.i = icmp eq i16 %30, 0
  br i1 %.not.i, label %_sp_div_2.exit, label %31

31:                                               ; preds = %._crit_edge.i, %._crit_edge.thread.i
  %32 = phi i64 [ 0, %._crit_edge.thread.i ], [ %wide.trip.count.i, %._crit_edge.i ]
  %33 = add nuw nsw i64 %32, 1
  %34 = getelementptr inbounds nuw i8, ptr %1, i64 8
  br label %35

35:                                               ; preds = %37, %31
  %indvars.iv26.i = phi i64 [ %indvars.iv.next27.i, %37 ], [ %33, %31 ]
  %36 = icmp sgt i64 %indvars.iv26.i, 0
  br i1 %36, label %37, label %.critedge.i

37:                                               ; preds = %35
  %indvars.iv.next27.i = add nsw i64 %indvars.iv26.i, -1
  %38 = getelementptr inbounds nuw [129 x i64], ptr %34, i64 0, i64 %indvars.iv.next27.i
  %39 = load i64, ptr %38, align 8, !tbaa !8
  %40 = icmp eq i64 %39, 0
  br i1 %40, label %35, label %.critedge.split.loop.exit31.i, !llvm.loop !42

.critedge.split.loop.exit31.i:                    ; preds = %37
  %41 = trunc i64 %indvars.iv26.i to i16
  br label %.critedge.i

.critedge.i:                                      ; preds = %35, %.critedge.split.loop.exit31.i
  %.0.in.lcssa.i = phi i16 [ %41, %.critedge.split.loop.exit31.i ], [ 0, %35 ]
  store i16 %.0.in.lcssa.i, ptr %1, align 8, !tbaa !12
  br label %_sp_div_2.exit

_sp_div_2.exit:                                   ; preds = %2, %5, %.critedge.i, %._crit_edge.i
  %.011 = phi i32 [ 0, %._crit_edge.i ], [ 0, %.critedge.i ], [ -98, %5 ], [ -98, %2 ]
  ret i32 %.011
}